target datalayout = "e-m:e-p270:32:32-p271:32:32-p272:64:64-i64:64-i128:128-f80:128-n8:16:32:64-S128"
target triple = "x86_64-unknown-linux-gnu"

%"class.icu_75::DictionaryBreakEngine" = type { %"class.icu_75::LanguageBreakEngine", %"class.icu_75::UnicodeSet" }
%"class.icu_75::LanguageBreakEngine" = type { %"class.icu_75::UObject" }
%"class.icu_75::UObject" = type { ptr }
%"class.icu_75::UnicodeSet" = type <{ %"class.icu_75::UnicodeFilter", ptr, i32, i32, i8, [7 x i8], ptr, ptr, i32, [4 x i8], ptr, i32, [4 x i8], ptr, ptr, [25 x i32], [4 x i8] }>
%"class.icu_75::UnicodeFilter" = type { %"class.icu_75::UnicodeFunctor", %"class.icu_75::UnicodeMatcher" }
%"class.icu_75::UnicodeFunctor" = type { %"class.icu_75::UObject" }
%"class.icu_75::UnicodeMatcher" = type { ptr }
%"class.icu_75::UnicodeString" = type { %"class.icu_75::Replaceable", %"union.icu_75::UnicodeString::StackBufferOrFields" }
%"class.icu_75::Replaceable" = type { %"class.icu_75::UObject" }
%"union.icu_75::UnicodeString::StackBufferOrFields" = type { %struct.anon.0, [32 x i8] }
%struct.anon.0 = type { i16, i32, i32, ptr }
%"class.icu_75::KhmerBreakEngine" = type { %"class.icu_75::DictionaryBreakEngine", %"class.icu_75::UnicodeSet", %"class.icu_75::UnicodeSet", %"class.icu_75::UnicodeSet", ptr }

@.str.6 = private unnamed_addr constant [28 x i16] [i16 91, i16 91, i16 58, i16 75, i16 104, i16 109, i16 114, i16 58, i16 93, i16 38, i16 91, i16 58, i16 76, i16 105, i16 110, i16 101, i16 66, i16 114, i16 101, i16 97, i16 107, i16 61, i16 83, i16 65, i16 58, i16 93, i16 93, i16 0], align 2

; Function Attrs: mustprogress nounwind uwtable
define void @_ZN6icu_7521DictionaryBreakEngineD2Ev(ptr noundef nonnull align 8 dereferenceable(208) %this) unnamed_addr #3 align 2 {
entry:
  %this.addr = alloca ptr, align 8
  store ptr %this, ptr %this.addr, align 8
  %this1 = load ptr, ptr %this.addr, align 8
  store ptr getelementptr inbounds ({ [9 x ptr] }, ptr @_ZTVN6icu_7521DictionaryBreakEngineE, i32 0, i32 0, i32 2), ptr %this1, align 8
  %fSet = getelementptr inbounds %"class.icu_75::DictionaryBreakEngine", ptr %this1, i32 0, i32 1
  call void @_ZN6icu_7510UnicodeSetD1Ev(ptr noundef nonnull align 8 dereferenceable(200) %fSet) #7
  call void @_ZN6icu_7519LanguageBreakEngineD2Ev(ptr noundef nonnull align 8 dereferenceable(8) %this1) #7
  ret void
}

; Function Attrs: mustprogress nounwind uwtable
define internal noundef signext i8 @_ZL9U_SUCCESS10UErrorCode(i32 noundef %code) #3 {
entry:
  %code.addr = alloca i32, align 4
  store i32 %code, ptr %code.addr, align 4
  %0 = load i32, ptr %code.addr, align 4
  %cmp = icmp sle i32 %0, 0
  %conv = zext i1 %cmp to i8
  ret i8 %conv
}

; Function Attrs: mustprogress uwtable
define void @_ZN6icu_7521DictionaryBreakEngineC2Ev(ptr noundef nonnull align 8 dereferenceable(208) %this) unnamed_addr #0 align 2 personality ptr @__gxx_personality_v0 {
entry:
  %this.addr = alloca ptr, align 8
  %exn.slot = alloca ptr, align 8
  %ehselector.slot = alloca i32, align 4
  store ptr %this, ptr %this.addr, align 8
  %this1 = load ptr, ptr %this.addr, align 8
  call void @_ZN6icu_7519LanguageBreakEngineC2Ev(ptr noundef nonnull align 8 dereferenceable(8) %this1)
  store ptr getelementptr inbounds ({ [9 x ptr] }, ptr @_ZTVN6icu_7521DictionaryBreakEngineE, i32 0, i32 0, i32 2), ptr %this1, align 8
  %fSet = getelementptr inbounds %"class.icu_75::DictionaryBreakEngine", ptr %this1, i32 0, i32 1
  invoke void @_ZN6icu_7510UnicodeSetC1Ev(ptr noundef nonnull align 8 dereferenceable(200) %fSet)
          to label %invoke.cont unwind label %lpad

invoke.cont:                                      ; preds = %entry
  ret void

lpad:                                             ; preds = %entry
  %0 = landingpad { ptr, i32 }
          cleanup
  %1 = extractvalue { ptr, i32 } %0, 0
  store ptr %1, ptr %exn.slot, align 8
  %2 = extractvalue { ptr, i32 } %0, 1
  store i32 %2, ptr %ehselector.slot, align 4
  call void @_ZN6icu_7519LanguageBreakEngineD2Ev(ptr noundef nonnull align 8 dereferenceable(8) %this1) #7
  br label %eh.resume

eh.resume:                                        ; preds = %lpad
  %exn = load ptr, ptr %exn.slot, align 8
  %sel = load i32, ptr %ehselector.slot, align 4
  %lpad.val = insertvalue { ptr, i32 } poison, ptr %exn, 0
  %lpad.val2 = insertvalue { ptr, i32 } %lpad.val, i32 %sel, 1
  resume { ptr, i32 } %lpad.val2
}

; Function Attrs: mustprogress uwtable
define void @_ZN6icu_7516KhmerBreakEngineC2EPNS_17DictionaryMatcherER10UErrorCode(ptr noundef nonnull align 8 dereferenceable(816) %this, ptr noundef %adoptDictionary, ptr noundef nonnull align 4 dereferenceable(4) %status) unnamed_addr #0 align 2 personality ptr @__gxx_personality_v0 {
entry:
  %this.addr = alloca ptr, align 8
  %adoptDictionary.addr = alloca ptr, align 8
  %status.addr = alloca ptr, align 8
  %exn.slot = alloca ptr, align 8
  %ehselector.slot = alloca i32, align 4
  %khmerWordSet = alloca %"class.icu_75::UnicodeSet", align 8
  %ref.tmp = alloca %"class.icu_75::UnicodeString", align 8
  %ref.tmp14 = alloca %"class.icu_75::UnicodeString", align 8
  store ptr %this, ptr %this.addr, align 8
  store ptr %adoptDictionary, ptr %adoptDictionary.addr, align 8
  store ptr %status, ptr %status.addr, align 8
  %this1 = load ptr, ptr %this.addr, align 8
  call void @_ZN6icu_7521DictionaryBreakEngineC2Ev(ptr noundef nonnull align 8 dereferenceable(208) %this1)
  store ptr getelementptr inbounds ({ [9 x ptr] }, ptr @_ZTVN6icu_7516KhmerBreakEngineE, i32 0, i32 0, i32 2), ptr %this1, align 8
  %fEndWordSet = getelementptr inbounds %"class.icu_75::KhmerBreakEngine", ptr %this1, i32 0, i32 1
  invoke void @_ZN6icu_7510UnicodeSetC1Ev(ptr noundef nonnull align 8 dereferenceable(200) %fEndWordSet)
          to label %invoke.cont unwind label %lpad

invoke.cont:                                      ; preds = %entry
  %fBeginWordSet = getelementptr inbounds %"class.icu_75::KhmerBreakEngine", ptr %this1, i32 0, i32 2
  invoke void @_ZN6icu_7510UnicodeSetC1Ev(ptr noundef nonnull align 8 dereferenceable(200) %fBeginWordSet)
          to label %invoke.cont3 unwind label %lpad2

invoke.cont3:                                     ; preds = %invoke.cont
  %fMarkSet = getelementptr inbounds %"class.icu_75::KhmerBreakEngine", ptr %this1, i32 0, i32 3
  invoke void @_ZN6icu_7510UnicodeSetC1Ev(ptr noundef nonnull align 8 dereferenceable(200) %fMarkSet)
          to label %invoke.cont5 unwind label %lpad4

invoke.cont5:                                     ; preds = %invoke.cont3
  %fDictionary = getelementptr inbounds %"class.icu_75::KhmerBreakEngine", ptr %this1, i32 0, i32 4
  %0 = load ptr, ptr %adoptDictionary.addr, align 8
  store ptr %0, ptr %fDictionary, align 8
  invoke void @_ZN6icu_7513UnicodeStringC1EPKDs(ptr noundef nonnull align 8 dereferenceable(64) %ref.tmp, ptr noundef @.str.6)
          to label %invoke.cont7 unwind label %lpad6

invoke.cont7:                                     ; preds = %invoke.cont5
  %1 = load ptr, ptr %status.addr, align 8
  invoke void @_ZN6icu_7510UnicodeSetC1ERKNS_13UnicodeStringER10UErrorCode(ptr noundef nonnull align 8 dereferenceable(200) %khmerWordSet, ptr noundef nonnull align 8 dereferenceable(64) %ref.tmp, ptr noundef nonnull align 4 dereferenceable(4) %1)
          to label %invoke.cont9 unwind label %lpad8

invoke.cont9:                                     ; preds = %invoke.cont7
  call void @_ZN6icu_7513UnicodeStringD1Ev(ptr noundef nonnull align 8 dereferenceable(64) %ref.tmp) #7
  %2 = load ptr, ptr %status.addr, align 8
  %3 = load i32, ptr %2, align 4
  %call = invoke noundef signext i8 @_ZL9U_SUCCESS10UErrorCode(i32 noundef %3)
          to label %invoke.cont11 unwind label %lpad10

invoke.cont11:                                    ; preds = %invoke.cont9
  %tobool = icmp ne i8 %call, 0
  br i1 %tobool, label %if.then, label %if.end

if.then:                                          ; preds = %invoke.cont11
  %vtable = load ptr, ptr %this1, align 8
  %vfn = getelementptr inbounds ptr, ptr %vtable, i64 5
  %4 = load ptr, ptr %vfn, align 8
  invoke void %4(ptr noundef nonnull align 8 dereferenceable(208) %this1, ptr noundef nonnull align 8 dereferenceable(200) %khmerWordSet)
          to label %invoke.cont12 unwind label %lpad10

invoke.cont12:                                    ; preds = %if.then
  br label %if.end

lpad:                                             ; preds = %entry
  %5 = landingpad { ptr, i32 }
          cleanup
  %6 = extractvalue { ptr, i32 } %5, 0
  store ptr %6, ptr %exn.slot, align 8
  %7 = extractvalue { ptr, i32 } %5, 1
  store i32 %7, ptr %ehselector.slot, align 4
  br label %ehcleanup43

lpad2:                                            ; preds = %invoke.cont
  %8 = landingpad { ptr, i32 }
          cleanup
  %9 = extractvalue { ptr, i32 } %8, 0
  store ptr %9, ptr %exn.slot, align 8
  %10 = extractvalue { ptr, i32 } %8, 1
  store i32 %10, ptr %ehselector.slot, align 4
  br label %ehcleanup42

lpad4:                                            ; preds = %invoke.cont3
  %11 = landingpad { ptr, i32 }
          cleanup
  %12 = extractvalue { ptr, i32 } %11, 0
  store ptr %12, ptr %exn.slot, align 8
  %13 = extractvalue { ptr, i32 } %11, 1
  store i32 %13, ptr %ehselector.slot, align 4
  br label %ehcleanup41

lpad6:                                            ; preds = %invoke.cont5
  %14 = landingpad { ptr, i32 }
          cleanup
  %15 = extractvalue { ptr, i32 } %14, 0
  store ptr %15, ptr %exn.slot, align 8
  %16 = extractvalue { ptr, i32 } %14, 1
  store i32 %16, ptr %ehselector.slot, align 4
  br label %ehcleanup40

lpad8:                                            ; preds = %invoke.cont7
  %17 = landingpad { ptr, i32 }
          cleanup
  %18 = extractvalue { ptr, i32 } %17, 0
  store ptr %18, ptr %exn.slot, align 8
  %19 = extractvalue { ptr, i32 } %17, 1
  store i32 %19, ptr %ehselector.slot, align 4
  call void @_ZN6icu_7513UnicodeStringD1Ev(ptr noundef nonnull align 8 dereferenceable(64) %ref.tmp) #7
  br label %ehcleanup40

lpad10:                                           ; preds = %invoke.cont35, %invoke.cont32, %invoke.cont29, %invoke.cont26, %invoke.cont23, %invoke.cont20, %invoke.cont17, %if.end, %if.then, %invoke.cont9
  %20 = landingpad { ptr, i32 }
          cleanup
  %21 = extractvalue { ptr, i32 } %20, 0
  store ptr %21, ptr %exn.slot, align 8
  %22 = extractvalue { ptr, i32 } %20, 1
  store i32 %22, ptr %ehselector.slot, align 4
  br label %ehcleanup

if.end:                                           ; preds = %invoke.cont12, %invoke.cont11
  %fMarkSet13 = getelementptr inbounds %"class.icu_75::KhmerBreakEngine", ptr %this1, i32 0, i32 3
  invoke void @_ZN6icu_7513UnicodeStringC1EPKDs(ptr noundef nonnull align 8 dereferenceable(64) %ref.tmp14, ptr noundef @.str.7)
          to label %invoke.cont15 unwind label %lpad10

invoke.cont15:                                    ; preds = %if.end
  %23 = load ptr, ptr %status.addr, align 8
  %call18 = invoke noundef nonnull align 8 dereferenceable(200) ptr @_ZN6icu_7510UnicodeSet12applyPatternERKNS_13UnicodeStringER10UErrorCode(ptr noundef nonnull align 8 dereferenceable(200) %fMarkSet13, ptr noundef nonnull align 8 dereferenceable(64) %ref.tmp14, ptr noundef nonnull align 4 dereferenceable(4) %23)
          to label %invoke.cont17 unwind label %lpad16

invoke.cont17:                                    ; preds = %invoke.cont15
  call void @_ZN6icu_7513UnicodeStringD1Ev(ptr noundef nonnull align 8 dereferenceable(64) %ref.tmp14) #7
  %fMarkSet19 = getelementptr inbounds %"class.icu_75::KhmerBreakEngine", ptr %this1, i32 0, i32 3
  %call21 = invoke noundef nonnull align 8 dereferenceable(200) ptr @_ZN6icu_7510UnicodeSet3addEi(ptr noundef nonnull align 8 dereferenceable(200) %fMarkSet19, i32 noundef 32)
          to label %invoke.cont20 unwind label %lpad10

invoke.cont20:                                    ; preds = %invoke.cont17
  %fEndWordSet22 = getelementptr inbounds %"class.icu_75::KhmerBreakEngine", ptr %this1, i32 0, i32 1
  %call24 = invoke noundef nonnull align 8 dereferenceable(200) ptr @_ZN6icu_7510UnicodeSetaSERKS0_(ptr noundef nonnull align 8 dereferenceable(200) %fEndWordSet22, ptr noundef nonnull align 8 dereferenceable(200) %khmerWordSet)
          to label %invoke.cont23 unwind label %lpad10

invoke.cont23:                                    ; preds = %invoke.cont20
  %fBeginWordSet25 = getelementptr inbounds %"class.icu_75::KhmerBreakEngine", ptr %this1, i32 0, i32 2
  %call27 = invoke noundef nonnull align 8 dereferenceable(200) ptr @_ZN6icu_7510UnicodeSet3addEii(ptr noundef nonnull align 8 dereferenceable(200) %fBeginWordSet25, i32 noundef 6016, i32 noundef 6067)
          to label %invoke.cont26 unwind label %lpad10

invoke.cont26:                                    ; preds = %invoke.cont23
  %fEndWordSet28 = getelementptr inbounds %"class.icu_75::KhmerBreakEngine", ptr %this1, i32 0, i32 1
  %call30 = invoke noundef nonnull align 8 dereferenceable(200) ptr @_ZN6icu_7510UnicodeSet6removeEi(ptr noundef nonnull align 8 dereferenceable(200) %fEndWordSet28, i32 noundef 6098)
          to label %invoke.cont29 unwind label %lpad10

invoke.cont29:                                    ; preds = %invoke.cont26
  %fMarkSet31 = getelementptr inbounds %"class.icu_75::KhmerBreakEngine", ptr %this1, i32 0, i32 3
  %call33 = invoke noundef nonnull align 8 dereferenceable(200) ptr @_ZN6icu_7510UnicodeSet7compactEv(ptr noundef nonnull align 8 dereferenceable(200) %fMarkSet31)
          to label %invoke.cont32 unwind label %lpad10

invoke.cont32:                                    ; preds = %invoke.cont29
  %fEndWordSet34 = getelementptr inbounds %"class.icu_75::KhmerBreakEngine", ptr %this1, i32 0, i32 1
  %call36 = invoke noundef nonnull align 8 dereferenceable(200) ptr @_ZN6icu_7510UnicodeSet7compactEv(ptr noundef nonnull align 8 dereferenceable(200) %fEndWordSet34)
          to label %invoke.cont35 unwind label %lpad10

invoke.cont35:                                    ; preds = %invoke.cont32
  %fBeginWordSet37 = getelementptr inbounds %"class.icu_75::KhmerBreakEngine", ptr %this1, i32 0, i32 2
  %call39 = invoke noundef nonnull align 8 dereferenceable(200) ptr @_ZN6icu_7510UnicodeSet7compactEv(ptr noundef nonnull align 8 dereferenceable(200) %fBeginWordSet37)
          to label %invoke.cont38 unwind label %lpad10

invoke.cont38:                                    ; preds = %invoke.cont35
  call void @_ZN6icu_7510UnicodeSetD1Ev(ptr noundef nonnull align 8 dereferenceable(200) %khmerWordSet) #7
  ret void

lpad16:                                           ; preds = %invoke.cont15
  %24 = landingpad { ptr, i32 }
          cleanup
  %25 = extractvalue { ptr, i32 } %24, 0
  store ptr %25, ptr %exn.slot, align 8
  %26 = extractvalue { ptr, i32 } %24, 1
  store i32 %26, ptr %ehselector.slot, align 4
  call void @_ZN6icu_7513UnicodeStringD1Ev(ptr noundef nonnull align 8 dereferenceable(64) %ref.tmp14) #7
  br label %ehcleanup

ehcleanup:                                        ; preds = %lpad16, %lpad10
  call void @_ZN6icu_7510UnicodeSetD1Ev(ptr noundef nonnull align 8 dereferenceable(200) %khmerWordSet) #7
  br label %ehcleanup40

ehcleanup40:                                      ; preds = %ehcleanup, %lpad8, %lpad6
  call void @_ZN6icu_7510UnicodeSetD1Ev(ptr noundef nonnull align 8 dereferenceable(200) %fMarkSet) #7
  br label %ehcleanup41

ehcleanup41:                                      ; preds = %ehcleanup40, %lpad4
  call void @_ZN6icu_7510UnicodeSetD1Ev(ptr noundef nonnull align 8 dereferenceable(200) %fBeginWordSet) #7
  br label %ehcleanup42

ehcleanup42:                                      ; preds = %ehcleanup41, %lpad2
  call void @_ZN6icu_7510UnicodeSetD1Ev(ptr noundef nonnull align 8 dereferenceable(200) %fEndWordSet) #7
  br label %ehcleanup43

ehcleanup43:                                      ; preds = %ehcleanup42, %lpad
  call void @_ZN6icu_7521DictionaryBreakEngineD2Ev(ptr noundef nonnull align 8 dereferenceable(208) %this1) #7
  br label %eh.resume

eh.resume:                                        ; preds = %ehcleanup43
  %exn = load ptr, ptr %exn.slot, align 8
  %sel = load i32, ptr %ehselector.slot, align 4
  %lpad.val = insertvalue { ptr, i32 } poison, ptr %exn, 0
  %lpad.val44 = insertvalue { ptr, i32 } %lpad.val, i32 %sel, 1
  resume { ptr, i32 } %lpad.val44
}