; Function Attrs: mustprogress uwtable
define void @_ZN6icu_7516KhmerBreakEngineC2EPNS_17DictionaryMatcherER10UErrorCode(ptr noundef nonnull align 8 dereferenceable(816) %this, ptr noundef %adoptDictionary, ptr noundef nonnull align 4 dereferenceable(4) %status) unnamed_addr #0 align 2 personality ptr @__gxx_personality_v0 {
entry:
  %khmerWordSet = alloca %"class.icu_75::UnicodeSet", align 8
  %ref.tmp = alloca %"class.icu_75::UnicodeString", align 8
  %ref.tmp14 = alloca %"class.icu_75::UnicodeString", align 8
  tail call void @_ZN6icu_7519LanguageBreakEngineC2Ev(ptr noundef nonnull align 8 dereferenceable(8) %this)
  store ptr getelementptr inbounds ({ [9 x ptr] }, ptr @_ZTVN6icu_7521DictionaryBreakEngineE, i64 0, i32 0, i64 2), ptr %this, align 8
  %fSet.i = getelementptr inbounds i8, ptr %this, i64 8
  invoke void @_ZN6icu_7510UnicodeSetC1Ev(ptr noundef nonnull align 8 dereferenceable(200) %fSet.i)
          to label %_ZN6icu_7521DictionaryBreakEngineC2Ev.exit unwind label %lpad.i

common.resume:                                    ; preds = %ehcleanup43, %lpad.i
  %common.resume.op = phi { ptr, i32 } [ %0, %lpad.i ], [ %.pn.pn.pn.pn.pn, %ehcleanup43 ]
  resume { ptr, i32 } %common.resume.op

lpad.i:                                           ; preds = %entry
  %0 = landingpad { ptr, i32 }
          cleanup
  tail call void @_ZN6icu_7519LanguageBreakEngineD2Ev(ptr noundef nonnull align 8 dereferenceable(8) %this) #9
  br label %common.resume

_ZN6icu_7521DictionaryBreakEngineC2Ev.exit:       ; preds = %entry
  store ptr getelementptr inbounds ({ [9 x ptr] }, ptr @_ZTVN6icu_7516KhmerBreakEngineE, i64 0, i32 0, i64 2), ptr %this, align 8
  %fEndWordSet = getelementptr inbounds i8, ptr %this, i64 208
  invoke void @_ZN6icu_7510UnicodeSetC1Ev(ptr noundef nonnull align 8 dereferenceable(200) %fEndWordSet)
          to label %invoke.cont unwind label %lpad

invoke.cont:                                      ; preds = %_ZN6icu_7521DictionaryBreakEngineC2Ev.exit
  %fBeginWordSet = getelementptr inbounds i8, ptr %this, i64 408
  invoke void @_ZN6icu_7510UnicodeSetC1Ev(ptr noundef nonnull align 8 dereferenceable(200) %fBeginWordSet)
          to label %invoke.cont3 unwind label %lpad2

invoke.cont3:                                     ; preds = %invoke.cont
  %fMarkSet = getelementptr inbounds i8, ptr %this, i64 608
  invoke void @_ZN6icu_7510UnicodeSetC1Ev(ptr noundef nonnull align 8 dereferenceable(200) %fMarkSet)
          to label %invoke.cont5 unwind label %lpad4

invoke.cont5:                                     ; preds = %invoke.cont3
  %fDictionary = getelementptr inbounds i8, ptr %this, i64 808
  store ptr %adoptDictionary, ptr %fDictionary, align 8
  invoke void @_ZN6icu_7513UnicodeStringC1EPKDs(ptr noundef nonnull align 8 dereferenceable(64) %ref.tmp, ptr noundef nonnull @.str.6)
          to label %invoke.cont7 unwind label %lpad6

invoke.cont7:                                     ; preds = %invoke.cont5
  invoke void @_ZN6icu_7510UnicodeSetC1ERKNS_13UnicodeStringER10UErrorCode(ptr noundef nonnull align 8 dereferenceable(200) %khmerWordSet, ptr noundef nonnull align 8 dereferenceable(64) %ref.tmp, ptr noundef nonnull align 4 dereferenceable(4) %status)
          to label %invoke.cont9 unwind label %lpad8

invoke.cont9:                                     ; preds = %invoke.cont7
  call void @_ZN6icu_7513UnicodeStringD1Ev(ptr noundef nonnull align 8 dereferenceable(64) %ref.tmp) #9
  %1 = load i32, ptr %status, align 4
  %cmp.i = icmp sgt i32 %1, 0
  br i1 %cmp.i, label %if.end, label %if.then

if.then:                                          ; preds = %invoke.cont9
  %vtable = load ptr, ptr %this, align 8
  %vfn = getelementptr inbounds i8, ptr %vtable, i64 40
  %2 = load ptr, ptr %vfn, align 8
  invoke void %2(ptr noundef nonnull align 8 dereferenceable(208) %this, ptr noundef nonnull align 8 dereferenceable(200) %khmerWordSet)
          to label %if.end unwind label %lpad10

lpad:                                             ; preds = %_ZN6icu_7521DictionaryBreakEngineC2Ev.exit
  %3 = landingpad { ptr, i32 }
          cleanup
  br label %ehcleanup43

lpad2:                                            ; preds = %invoke.cont
  %4 = landingpad { ptr, i32 }
          cleanup
  br label %ehcleanup42

lpad4:                                            ; preds = %invoke.cont3
  %5 = landingpad { ptr, i32 }
          cleanup
  br label %ehcleanup41

lpad6:                                            ; preds = %invoke.cont5
  %6 = landingpad { ptr, i32 }
          cleanup
  br label %ehcleanup40

lpad8:                                            ; preds = %invoke.cont7
  %7 = landingpad { ptr, i32 }
          cleanup
  call void @_ZN6icu_7513UnicodeStringD1Ev(ptr noundef nonnull align 8 dereferenceable(64) %ref.tmp) #9
  br label %ehcleanup40

lpad10:                                           ; preds = %invoke.cont35, %invoke.cont32, %invoke.cont29, %invoke.cont26, %invoke.cont23, %invoke.cont20, %invoke.cont17, %if.end, %if.then
  %8 = landingpad { ptr, i32 }
          cleanup
  br label %ehcleanup

if.end:                                           ; preds = %if.then, %invoke.cont9
  invoke void @_ZN6icu_7513UnicodeStringC1EPKDs(ptr noundef nonnull align 8 dereferenceable(64) %ref.tmp14, ptr noundef nonnull @.str.7)
          to label %invoke.cont15 unwind label %lpad10

invoke.cont15:                                    ; preds = %if.end
  %call18 = invoke noundef nonnull align 8 dereferenceable(200) ptr @_ZN6icu_7510UnicodeSet12applyPatternERKNS_13UnicodeStringER10UErrorCode(ptr noundef nonnull align 8 dereferenceable(200) %fMarkSet, ptr noundef nonnull align 8 dereferenceable(64) %ref.tmp14, ptr noundef nonnull align 4 dereferenceable(4) %status)
          to label %invoke.cont17 unwind label %lpad16

invoke.cont17:                                    ; preds = %invoke.cont15
  call void @_ZN6icu_7513UnicodeStringD1Ev(ptr noundef nonnull align 8 dereferenceable(64) %ref.tmp14) #9
  %call21 = invoke noundef nonnull align 8 dereferenceable(200) ptr @_ZN6icu_7510UnicodeSet3addEi(ptr noundef nonnull align 8 dereferenceable(200) %fMarkSet, i32 noundef 32)
          to label %invoke.cont20 unwind label %lpad10

invoke.cont20:                                    ; preds = %invoke.cont17
  %call24 = invoke noundef nonnull align 8 dereferenceable(200) ptr @_ZN6icu_7510UnicodeSetaSERKS0_(ptr noundef nonnull align 8 dereferenceable(200) %fEndWordSet, ptr noundef nonnull align 8 dereferenceable(200) %khmerWordSet)
          to label %invoke.cont23 unwind label %lpad10

invoke.cont23:                                    ; preds = %invoke.cont20
  %call27 = invoke noundef nonnull align 8 dereferenceable(200) ptr @_ZN6icu_7510UnicodeSet3addEii(ptr noundef nonnull align 8 dereferenceable(200) %fBeginWordSet, i32 noundef 6016, i32 noundef 6067)
          to label %invoke.cont26 unwind label %lpad10

invoke.cont26:                                    ; preds = %invoke.cont23
  %call30 = invoke noundef nonnull align 8 dereferenceable(200) ptr @_ZN6icu_7510UnicodeSet6removeEi(ptr noundef nonnull align 8 dereferenceable(200) %fEndWordSet, i32 noundef 6098)
          to label %invoke.cont29 unwind label %lpad10

invoke.cont29:                                    ; preds = %invoke.cont26
  %call33 = invoke noundef nonnull align 8 dereferenceable(200) ptr @_ZN6icu_7510UnicodeSet7compactEv(ptr noundef nonnull align 8 dereferenceable(200) %fMarkSet)
          to label %invoke.cont32 unwind label %lpad10

invoke.cont32:                                    ; preds = %invoke.cont29
  %call36 = invoke noundef nonnull align 8 dereferenceable(200) ptr @_ZN6icu_7510UnicodeSet7compactEv(ptr noundef nonnull align 8 dereferenceable(200) %fEndWordSet)
          to label %invoke.cont35 unwind label %lpad10

invoke.cont35:                                    ; preds = %invoke.cont32
  %call39 = invoke noundef nonnull align 8 dereferenceable(200) ptr @_ZN6icu_7510UnicodeSet7compactEv(ptr noundef nonnull align 8 dereferenceable(200) %fBeginWordSet)
          to label %invoke.cont38 unwind label %lpad10

invoke.cont38:                                    ; preds = %invoke.cont35
  call void @_ZN6icu_7510UnicodeSetD1Ev(ptr noundef nonnull align 8 dereferenceable(200) %khmerWordSet) #9
  ret void

lpad16:                                           ; preds = %invoke.cont15
  %9 = landingpad { ptr, i32 }
          cleanup
  call void @_ZN6icu_7513UnicodeStringD1Ev(ptr noundef nonnull align 8 dereferenceable(64) %ref.tmp14) #9
  br label %ehcleanup

ehcleanup:                                        ; preds = %lpad16, %lpad10
  %.pn = phi { ptr, i32 } [ %8, %lpad10 ], [ %9, %lpad16 ]
  call void @_ZN6icu_7510UnicodeSetD1Ev(ptr noundef nonnull align 8 dereferenceable(200) %khmerWordSet) #9
  br label %ehcleanup40

ehcleanup40:                                      ; preds = %ehcleanup, %lpad8, %lpad6
  %.pn.pn = phi { ptr, i32 } [ %.pn, %ehcleanup ], [ %7, %lpad8 ], [ %6, %lpad6 ]
  call void @_ZN6icu_7510UnicodeSetD1Ev(ptr noundef nonnull align 8 dereferenceable(200) %fMarkSet) #9
  br label %ehcleanup41

ehcleanup41:                                      ; preds = %ehcleanup40, %lpad4
  %.pn.pn.pn = phi { ptr, i32 } [ %.pn.pn, %ehcleanup40 ], [ %5, %lpad4 ]
  call void @_ZN6icu_7510UnicodeSetD1Ev(ptr noundef nonnull align 8 dereferenceable(200) %fBeginWordSet) #9
  br label %ehcleanup42

ehcleanup42:                                      ; preds = %ehcleanup41, %lpad2
  %.pn.pn.pn.pn = phi { ptr, i32 } [ %.pn.pn.pn, %ehcleanup41 ], [ %4, %lpad2 ]
  call void @_ZN6icu_7510UnicodeSetD1Ev(ptr noundef nonnull align 8 dereferenceable(200) %fEndWordSet) #9
  br label %ehcleanup43

ehcleanup43:                                      ; preds = %ehcleanup42, %lpad
  %.pn.pn.pn.pn.pn = phi { ptr, i32 } [ %.pn.pn.pn.pn, %ehcleanup42 ], [ %3, %lpad ]
  store ptr getelementptr inbounds ({ [9 x ptr] }, ptr @_ZTVN6icu_7521DictionaryBreakEngineE, i64 0, i32 0, i64 2), ptr %this, align 8
  call void @_ZN6icu_7510UnicodeSetD1Ev(ptr noundef nonnull align 8 dereferenceable(200) %fSet.i) #9
  call void @_ZN6icu_7519LanguageBreakEngineD2Ev(ptr noundef nonnull align 8 dereferenceable(8) %this) #9
  br label %common.resume
}